Certificate:
    Data:
        Version: 3 (0x2)
        Serial Number: 0 (0x0)
        Signature Algorithm: sha1WithRSAEncryption
        Issuer: C=US, ST=Illinois, O=Internet Widgits Pty Ltd, CN=Test CA
        Validity
            Not Before: Jul  6 15:00:41 2006 GMT
            Not After : Jul  5 15:00:41 2009 GMT
        Subject: C=US, ST=Illinois, O=Internet Widgits Pty Ltd, CN=Test CA
        Subject Public Key Info:
            Public Key Algorithm: rsaEncryption
            RSA Public Key: (1024 bit)
                Modulus (1024 bit):
                    00:a8:e6:e7:a9:e1:4a:48:38:9e:3e:5b:0d:3e:89:
                    85:43:67:03:e7:0c:dd:d0:1f:14:6e:1e:23:53:cd:
                    d7:5c:0c:1c:c6:75:20:40:12:8c:34:5d:9c:e9:48:
                    cc:42:61:da:83:2d:59:25:fb:bc:b0:11:1c:26:15:
                    2e:f3:0e:37:7c:6a:ce:b9:12:c5:48:19:cd:19:3d:
                    5a:dd:da:3d:6c:86:97:e3:97:0f:d8:1f:20:76:08:
                    dc:ba:cb:d7:25:99:0b:4e:55:cf:45:e9:72:25:ff:
                    fc:c6:a5:ff:54:11:7d:d3:4e:45:d5:21:13:b2:44:
                    98:58:9e:33:d2:53:52:d5:d5
                Exponent: 65537 (0x10001)
        X509v3 extensions:
            X509v3 Basic Constraints: 
                CA:FALSE
            Netscape Comment: 
                OpenSSL Generated Certificate
            X509v3 Subject Key Identifier: 
                89:CE:08:88:71:EC:18:11:96:61:15:1E:0B:78:B3:6B:08:C8:77:3A
            X509v3 Authority Key Identifier: 
                keyid:89:CE:08:88:71:EC:18:11:96:61:15:1E:0B:78:B3:6B:08:C8:77:3A

    Signature Algorithm: sha1WithRSAEncryption
        17:44:3b:92:f3:76:90:1f:1a:5d:9f:77:70:8d:0b:b1:67:19:
        f7:66:65:bf:e1:49:26:ae:08:5f:6d:d1:4f:17:ac:04:47:6e:
        72:40:ea:f7:45:ba:24:98:be:a8:9c:0c:46:b6:bd:c3:fe:9c:
        a9:00:23:e6:1e:33:c0:e4:7e:eb:bf:4b:52:66:a2:60:a3:c9:
        d2:7c:ae:df:54:06:26:23:ed:ef:e0:fd:0d:9d:a0:58:c1:8e:
        26:41:ba:db:74:d1:da:c0:f4:cc:7a:1a:10:f0:86:f1:16:26:
        08:9d:d2:27:46:ad:74:1f:3d:e6:f8:37:ec:3d:b9:ef:7b:18:
        b6:7b
-----BEGIN CERTIFICATE-----
MIICmzCCAgSgAwIBAgIBADANBgkqhkiG9w0BAQUFADBVMQswCQYDVQQGEwJVUzER
MA8GA1UECBMISWxsaW5vaXMxITAfBgNVBAoTGEludGVybmV0IFdpZGdpdHMgUHR5
IEx0ZDEQMA4GA1UEAxMHVGVzdCBDQTAeFw0wNjA3MDYxNTAwNDFaFw0wOTA3MDUx
NTAwNDFaMFUxCzAJBgNVBAYTAlVTMREwDwYDVQQIEwhJbGxpbm9pczEhMB8GA1UE
ChMYSW50ZXJuZXQgV2lkZ2l0cyBQdHkgTHRkMRAwDgYDVQQDEwdUZXN0IENBMIGf
MA0GCSqGSIb3DQEBAQUAA4GNADCBiQKBgQCo5uep4UpIOJ4+Ww0+iYVDZwPnDN3Q
HxRuHiNTzddcDBzGdSBAEow0XZzpSMxCYdqDLVkl+7ywERwmFS7zDjd8as65EsVI
Gc0ZPVrd2j1shpfjlw/YHyB2CNy6y9clmQtOVc9F6XIl//zGpf9UEX3TTkXVIROy
RJhYnjPSU1LV1QIDAQABo3sweTAJBgNVHRMEAjAAMCwGCWCGSAGG+EIBDQQfFh1P
cGVuU1NMIEdlbmVyYXRlZCBDZXJ0aWZpY2F0ZTAdBgNVHQ4EFgQUic4IiHHsGBGW
YRUeC3izawjIdzowHwYDVR0jBBgwFoAUic4IiHHsGBGWYRUeC3izawjIdzowDQYJ
KoZIhvcNAQEFBQADgYEAF0Q7kvN2kB8aXZ93cI0LsWcZ92Zlv+FJJq4IX23RTxes
BEduckDq90W6JJi+qJwMRra9w/6cqQAj5h4zwOR+679LUmaiYKPJ0nyu31QGJiPt
7+D9DZ2gWMGOJkG623TR2sD0zHoaEPCG8RYmCJ3SJ0atdB895vg37D2573sYtns=
-----END CERTIFICATE-----
