Certificate:
    Data:
        Version: 3 (0x2)
        Serial Number: 6 (0x6)
        Signature Algorithm: md5WithRSAEncryption
        Issuer: C=IL, ST=Beer-Sheva, L=Lion king, O=Intel, OU=Envara, CN=Eyal/emailAddress=eyal.zolotov@intel.com
        Validity
            Not Before: May 28 11:47:29 2007 GMT
            Not After : May 27 11:47:29 2008 GMT
        Subject: C=GB, ST=Berkshire, L=Newbury, O=My Company Ltd, CN=Yanir/emailAddress=yoss@intel.com
        Subject Public Key Info:
            Public Key Algorithm: rsaEncryption
            RSA Public Key: (1024 bit)
                Modulus (1024 bit):
                    00:ed:4e:1b:76:b6:e7:0e:a2:b3:87:a1:10:5f:e2:
                    d0:ad:9a:61:fb:4a:07:7e:46:3f:be:4c:9d:33:88:
                    60:c0:a7:59:f2:b7:4e:04:cb:13:15:1f:a8:38:6a:
                    bc:22:e8:01:b4:f4:63:2d:46:5d:60:a7:d2:84:da:
                    35:78:bd:1a:bb:33:e2:cf:4c:78:ca:32:5d:5d:16:
                    b7:63:da:5d:7d:fa:7e:bf:f3:0f:d5:f2:0c:97:d2:
                    36:fc:d0:aa:9a:52:92:12:bb:9a:b9:ae:ee:60:55:
                    13:80:4c:29:7f:b5:f0:9a:0c:d7:7b:2e:41:1e:05:
                    a9:5a:60:b8:70:df:29:50:25
                Exponent: 65537 (0x10001)
        X509v3 extensions:
            X509v3 Basic Constraints: 
            CA:FALSE
            Netscape Comment: 
            OpenSSL Generated Certificate
            X509v3 Subject Key Identifier: 
            36:00:BF:A0:2F:D7:FF:15:B7:E4:33:A2:9A:11:05:96:51:DD:E3:30
            X509v3 Authority Key Identifier: 
            keyid:A1:05:46:35:6D:8A:CB:B5:C8:69:1C:DD:AD:FD:94:1E:B3:5D:BE:EF
            DirName:/C=IL/ST=Beer-Sheva/L=Lion king/O=Intel/OU=Envara/CN=Eyal/emailAddress=eyal.zolotov@intel.com
            serial:00

    Signature Algorithm: md5WithRSAEncryption
        a3:5e:ec:03:66:20:27:d3:1e:9b:eb:82:a2:7e:f3:fc:2e:21:
        73:e3:20:1d:2c:64:38:b7:79:1c:bc:87:78:ea:81:ed:1e:16:
        23:9a:38:ca:1f:d1:1c:56:8d:ca:b9:3d:97:24:48:0f:21:f8:
        14:4a:55:51:51:6d:51:e8:dc:ba:d2:79:c9:2f:d1:dd:0e:b5:
        d3:1e:55:cd:90:fe:fa:24:18:84:aa:76:03:e8:5b:4f:59:b7:
        f3:5d:1c:2b:7b:a7:d7:69:d6:8e:34:6b:ec:bf:0f:b3:c2:18:
        58:96:e0:18:14:68:1b:88:b1:d6:d3:d3:ae:c5:48:49:ee:04:
        2a:b2
-----BEGIN CERTIFICATE-----
MIIDmjCCAwOgAwIBAgIBBjANBgkqhkiG9w0BAQQFADCBjTELMAkGA1UEBhMCSUwx
EzARBgNVBAgTCkJlZXItU2hldmExEjAQBgNVBAcTCUxpb24ga2luZzEOMAwGA1UE
ChMFSW50ZWwxDzANBgNVBAsTBkVudmFyYTENMAsGA1UEAxMERXlhbDElMCMGCSqG
SIb3DQEJARYWZXlhbC56b2xvdG92QGludGVsLmNvbTAeFw0wNzA1MjgxMTQ3Mjla
Fw0wODA1MjcxMTQ3MjlaMHsxCzAJBgNVBAYTAkdCMRIwEAYDVQQIEwlCZXJrc2hp
cmUxEDAOBgNVBAcTB05ld2J1cnkxFzAVBgNVBAoTDk15IENvbXBhbnkgTHRkMQ4w
DAYDVQQDEwVZYW5pcjEdMBsGCSqGSIb3DQEJARYOeW9zc0BpbnRlbC5jb20wgZ8w
DQYJKoZIhvcNAQEBBQADgY0AMIGJAoGBAO1OG3a25w6is4ehEF/i0K2aYftKB35G
P75MnTOIYMCnWfK3TgTLExUfqDhqvCLoAbT0Yy1GXWCn0oTaNXi9Grsz4s9MeMoy
XV0Wt2PaXX36fr/zD9XyDJfSNvzQqppSkhK7mrmu7mBVE4BMKX+18JoM13suQR4F
qVpguHDfKVAlAgMBAAGjggEZMIIBFTAJBgNVHRMEAjAAMCwGCWCGSAGG+EIBDQQf
Fh1PcGVuU1NMIEdlbmVyYXRlZCBDZXJ0aWZpY2F0ZTAdBgNVHQ4EFgQUNgC/oC/X
/xW35DOimhEFllHd4zAwgboGA1UdIwSBsjCBr4AUoQVGNW2Ky7XIaRzdrf2UHrNd
vu+hgZOkgZAwgY0xCzAJBgNVBAYTAklMMRMwEQYDVQQIEwpCZWVyLVNoZXZhMRIw
EAYDVQQHEwlMaW9uIGtpbmcxDjAMBgNVBAoTBUludGVsMQ8wDQYDVQQLEwZFbnZh
cmExDTALBgNVBAMTBEV5YWwxJTAjBgkqhkiG9w0BCQEWFmV5YWwuem9sb3RvdkBp
bnRlbC5jb22CAQAwDQYJKoZIhvcNAQEEBQADgYEAo17sA2YgJ9Mem+uCon7z/C4h
c+MgHSxkOLd5HLyHeOqB7R4WI5o4yh/RHFaNyrk9lyRIDyH4FEpVUVFtUejcutJ5
yS/R3Q610x5VzZD++iQYhKp2A+hbT1m3810cK3un12nWjjRr7L8Ps8IYWJbgGBRo
G4ix1tPTrsVISe4EKrI=
-----END CERTIFICATE-----
