Certificate:
    Data:
        Version: 3 (0x2)
        Serial Number: 1 (0x1)
        Signature Algorithm: sha256WithRSAEncryption
        Issuer: CN=wimaxforum.org, O=WiMAX(R) Forum, OU=WiMAX(R) Forum Device Root CA, C=US
        Validity
            Not Before: Nov 27 22:53:42 2007 GMT
            Not After : Nov 26 22:53:42 2042 GMT
        Subject: C=US, O=Intel Corporation, CN=Intel Wimax Device Sub CA
        Subject Public Key Info:
            Public Key Algorithm: rsaEncryption
            RSA Public Key: (2048 bit)
                Modulus (2048 bit):
                    00:b2:6d:31:1d:0a:f9:72:d3:2a:4b:78:ef:d2:fd:
                    fc:fd:cf:4c:a7:c4:65:59:d2:2b:5a:6e:cc:f0:71:
                    19:0b:d6:23:57:e5:eb:e0:be:24:f5:e5:34:e9:9d:
                    86:4e:54:b7:50:95:f8:11:74:04:ca:e6:e0:ec:51:
                    c0:07:b6:1d:07:7e:c0:31:dd:da:a8:c3:a8:bb:cd:
                    90:96:4d:eb:46:1c:5c:57:8e:f4:33:da:26:b6:73:
                    8c:b6:b2:c8:30:51:d5:f3:49:8f:f3:9e:32:c9:bd:
                    2d:89:27:43:9c:ab:b9:6f:08:c0:44:7d:3f:d6:40:
                    8b:3c:49:0f:0f:4d:c5:91:fd:6c:48:6a:d7:99:7f:
                    28:36:36:fd:86:31:c3:5b:5d:59:47:26:9a:ed:aa:
                    34:26:a4:ec:3d:7d:02:04:bc:fb:98:97:5c:0c:ae:
                    d6:f3:43:03:00:81:9a:e1:40:fe:0b:58:48:62:5e:
                    d8:f9:04:16:da:38:86:2a:ba:3e:90:d9:f8:c6:a8:
                    35:6a:cc:4b:d3:05:b3:89:84:ce:99:e9:9e:19:02:
                    80:1c:81:9f:3c:48:8a:d4:4b:b4:00:54:c5:2e:b3:
                    95:de:d6:95:0f:6a:c9:ba:62:e4:72:cd:2c:9c:c2:
                    09:c7:f0:1c:68:70:3f:20:08:f2:18:cb:1b:be:86:
                    02:37
                Exponent: 65537 (0x10001)
        X509v3 extensions:
            X509v3 Basic Constraints: critical
                CA:TRUE, pathlen:1
            X509v3 Key Usage: critical
                Certificate Sign, CRL Sign
            X509v3 Subject Key Identifier: 
                BA:9D:EA:DB:7B:6A:D9:EB:DB:D2:09:D1:E6:14:FB:B0:63:51:B3:CD
            X509v3 CRL Distribution Points: 
                URI:http://crls.wimaxforum.org/crls/device_subca_cacrl.crl

            X509v3 Authority Key Identifier: 
                keyid:5B:72:CF:AD:C4:46:0E:73:3F:83:11:E8:55:D0:41:4E:67:E8:4D:A8
                DirName:/CN=wimaxforum.org/O=WiMAX(R) Forum/OU=WiMAX(R) Forum Device Root CA/C=US
                serial:CD:E4:63:62:B4:EC:27:64

    Signature Algorithm: sha256WithRSAEncryption
        08:f9:86:bc:6f:00:66:bb:43:1f:e4:62:c5:71:bc:28:57:d6:
        7d:03:a9:cd:84:c2:92:fb:86:87:27:a3:50:1a:d0:a3:13:99:
        7b:3e:8a:de:1e:d0:29:d0:bc:38:74:51:32:fe:a3:43:a7:80:
        8e:f9:b5:80:90:6a:36:16:12:0c:57:9e:e7:03:74:21:b7:91:
        04:0d:0f:b4:95:7f:fe:7b:ba:5c:d6:30:98:1b:6c:fc:2c:5c:
        e8:47:92:20:18:0b:0a:9c:de:41:14:4d:bc:4d:1e:9c:ee:3e:
        68:78:41:7d:73:0b:9b:c0:d4:a2:63:a0:5b:b6:58:8e:f4:85:
        6e:54:89:3f:7a:23:66:64:e7:c2:b6:eb:dd:f1:03:06:97:39:
        4c:4a:a5:34:6d:6c:a6:db:0d:8c:ed:5d:a2:16:37:ec:c7:19:
        0d:46:c4:6e:9d:64:36:f6:c3:ca:09:aa:4f:b5:2e:3d:77:75:
        9f:c2:bb:88:7f:ae:70:34:bf:8b:81:58:f5:fc:98:2c:18:11:
        6d:d5:e9:4f:c9:b6:67:5e:60:a7:f4:31:96:45:8b:2f:1f:91:
        93:87:9e:2f:b3:78:1c:3b:fd:19:57:3b:1c:1e:1b:31:cf:58:
        98:ee:66:c7:a4:2a:33:c6:9e:52:03:93:73:70:a3:48:5c:83:
        81:cf:e5:49
-----BEGIN CERTIFICATE-----
MIIEXTCCA0WgAwIBAgIBATANBgkqhkiG9w0BAQsFADBnMRcwFQYDVQQDEw53aW1h
eGZvcnVtLm9yZzEXMBUGA1UEChMOV2lNQVgoUikgRm9ydW0xJjAkBgNVBAsTHVdp
TUFYKFIpIEZvcnVtIERldmljZSBSb290IENBMQswCQYDVQQGEwJVUzAeFw0wNzEx
MjcyMjUzNDJaFw00MjExMjYyMjUzNDJaME0xCzAJBgNVBAYTAlVTMRowGAYDVQQK
ExFJbnRlbCBDb3Jwb3JhdGlvbjEiMCAGA1UEAxMZSW50ZWwgV2ltYXggRGV2aWNl
IFN1YiBDQTCCASIwDQYJKoZIhvcNAQEBBQADggEPADCCAQoCggEBALJtMR0K+XLT
Kkt479L9/P3PTKfEZVnSK1puzPBxGQvWI1fl6+C+JPXlNOmdhk5Ut1CV+BF0BMrm
4OxRwAe2HQd+wDHd2qjDqLvNkJZN60YcXFeO9DPaJrZzjLayyDBR1fNJj/OeMsm9
LYknQ5yruW8IwER9P9ZAizxJDw9NxZH9bEhq15l/KDY2/YYxw1tdWUcmmu2qNCak
7D19AgS8+5iXXAyu1vNDAwCBmuFA/gtYSGJe2PkEFto4hiq6PpDZ+MaoNWrMS9MF
s4mEzpnpnhkCgByBnzxIitRLtABUxS6zld7WlQ9qybpi5HLNLJzCCcfwHGhwPyAI
8hjLG76GAjcCAwEAAaOCASwwggEoMBIGA1UdEwEB/wQIMAYBAf8CAQEwDgYDVR0P
AQH/BAQDAgEGMB0GA1UdDgQWBBS6nerbe2rZ69vSCdHmFPuwY1GzzTBHBgNVHR8E
QDA+MDygOqA4hjZodHRwOi8vY3Jscy53aW1heGZvcnVtLm9yZy9jcmxzL2Rldmlj
ZV9zdWJjYV9jYWNybC5jcmwwgZkGA1UdIwSBkTCBjoAUW3LPrcRGDnM/gxHoVdBB
TmfoTaiha6RpMGcxFzAVBgNVBAMTDndpbWF4Zm9ydW0ub3JnMRcwFQYDVQQKEw5X
aU1BWChSKSBGb3J1bTEmMCQGA1UECxMdV2lNQVgoUikgRm9ydW0gRGV2aWNlIFJv
b3QgQ0ExCzAJBgNVBAYTAlVTggkAzeRjYrTsJ2QwDQYJKoZIhvcNAQELBQADggEB
AAj5hrxvAGa7Qx/kYsVxvChX1n0Dqc2EwpL7hocno1Aa0KMTmXs+it4e0CnQvDh0
UTL+o0OngI75tYCQajYWEgxXnucDdCG3kQQND7SVf/57ulzWMJgbbPwsXOhHkiAY
Cwqc3kEUTbxNHpzuPmh4QX1zC5vA1KJjoFu2WI70hW5UiT96I2Zk58K2693xAwaX
OUxKpTRtbKbbDYztXaIWN+zHGQ1GxG6dZDb2w8oJqk+1Lj13dZ/Cu4h/rnA0v4uB
WPX8mCwYEW3V6U/JtmdeYKf0MZZFiy8fkZOHni+zeBw7/RlXOxweGzHPWJjuZsek
KjPGnlIDk3Nwo0hcg4HP5Uk=
-----END CERTIFICATE-----
