Certificate:
    Data:
        Version: 3 (0x2)
        Serial Number: 5 (0x5)
        Signature Algorithm: md5WithRSAEncryption
        Issuer: C=IL, ST=Beer-Sheva, L=Lion king, O=Intel, OU=Envara, CN=Eyal/emailAddress=eyal.zolotov@intel.com
        Validity
            Not Before: May 28 11:44:15 2007 GMT
            Not After : May 27 11:44:15 2008 GMT
        Subject: C=GB, ST=Berkshire, L=Newbury, O=My Company Ltd, CN=Eyal/emailAddress=eyal@intel.com
        Subject Public Key Info:
            Public Key Algorithm: rsaEncryption
            RSA Public Key: (1024 bit)
                Modulus (1024 bit):
                    00:d6:cd:4a:cc:c2:f8:7e:bf:73:0d:b1:95:54:de:
                    a8:39:1f:1a:5a:50:88:3a:7d:43:c5:d4:c6:88:e8:
                    32:3c:3b:38:57:d9:8c:a0:3e:41:ed:06:3f:6b:48:
                    a6:c9:1b:44:90:a3:03:f1:66:e4:e5:13:3c:25:a0:
                    5f:a3:2d:8d:f4:7e:54:ab:1f:a0:58:3c:81:01:bf:
                    4d:3e:89:47:ab:29:86:a5:fd:f5:68:66:54:65:72:
                    62:02:fb:64:ce:8a:d9:38:47:d6:32:fc:dc:de:c4:
                    dd:e0:6d:6c:8b:2d:d0:5a:81:91:1e:4f:43:bf:ab:
                    d4:de:01:5c:e6:be:c5:bf:87
                Exponent: 65537 (0x10001)
        X509v3 extensions:
            X509v3 Basic Constraints: 
            CA:FALSE
            Netscape Comment: 
            OpenSSL Generated Certificate
            X509v3 Subject Key Identifier: 
            9A:C7:2B:C6:6E:A3:37:C0:94:FB:E1:36:5C:64:BA:F9:BA:8E:38:32
            X509v3 Authority Key Identifier: 
            keyid:A1:05:46:35:6D:8A:CB:B5:C8:69:1C:DD:AD:FD:94:1E:B3:5D:BE:EF
            DirName:/C=IL/ST=Beer-Sheva/L=Lion king/O=Intel/OU=Envara/CN=Eyal/emailAddress=eyal.zolotov@intel.com
            serial:00

    Signature Algorithm: md5WithRSAEncryption
        a5:7d:86:f2:6c:ae:c1:4e:64:6f:80:fb:6d:f4:a9:9e:cc:55:
        8b:be:fd:a2:b3:c9:80:de:1f:05:4f:e1:c5:4c:f8:cb:41:bd:
        5c:46:d7:33:aa:cb:ef:e8:3b:a6:c0:c3:9a:ae:dc:24:83:d9:
        12:f3:97:6b:9f:c3:c6:60:ef:59:91:d5:ee:ad:0e:6a:b5:9e:
        b6:64:8b:c7:85:8e:73:70:ea:fc:74:c9:fd:fa:b9:c5:e4:39:
        63:83:5b:df:24:46:62:37:e7:1a:c7:49:f6:49:e2:fa:11:6b:
        80:cc:e8:ae:67:2a:e4:d9:a2:b4:e4:26:6d:dd:b5:d1:f4:71:
        37:b8
-----BEGIN CERTIFICATE-----
MIIDmTCCAwKgAwIBAgIBBTANBgkqhkiG9w0BAQQFADCBjTELMAkGA1UEBhMCSUwx
EzARBgNVBAgTCkJlZXItU2hldmExEjAQBgNVBAcTCUxpb24ga2luZzEOMAwGA1UE
ChMFSW50ZWwxDzANBgNVBAsTBkVudmFyYTENMAsGA1UEAxMERXlhbDElMCMGCSqG
SIb3DQEJARYWZXlhbC56b2xvdG92QGludGVsLmNvbTAeFw0wNzA1MjgxMTQ0MTVa
Fw0wODA1MjcxMTQ0MTVaMHoxCzAJBgNVBAYTAkdCMRIwEAYDVQQIEwlCZXJrc2hp
cmUxEDAOBgNVBAcTB05ld2J1cnkxFzAVBgNVBAoTDk15IENvbXBhbnkgTHRkMQ0w
CwYDVQQDEwRFeWFsMR0wGwYJKoZIhvcNAQkBFg5leWFsQGludGVsLmNvbTCBnzAN
BgkqhkiG9w0BAQEFAAOBjQAwgYkCgYEA1s1KzML4fr9zDbGVVN6oOR8aWlCIOn1D
xdTGiOgyPDs4V9mMoD5B7QY/a0imyRtEkKMD8Wbk5RM8JaBfoy2N9H5Uqx+gWDyB
Ab9NPolHqymGpf31aGZUZXJiAvtkzorZOEfWMvzc3sTd4G1siy3QWoGRHk9Dv6vU
3gFc5r7Fv4cCAwEAAaOCARkwggEVMAkGA1UdEwQCMAAwLAYJYIZIAYb4QgENBB8W
HU9wZW5TU0wgR2VuZXJhdGVkIENlcnRpZmljYXRlMB0GA1UdDgQWBBSaxyvGbqM3
wJT74TZcZLr5uo44MjCBugYDVR0jBIGyMIGvgBShBUY1bYrLtchpHN2t/ZQes12+
76GBk6SBkDCBjTELMAkGA1UEBhMCSUwxEzARBgNVBAgTCkJlZXItU2hldmExEjAQ
BgNVBAcTCUxpb24ga2luZzEOMAwGA1UEChMFSW50ZWwxDzANBgNVBAsTBkVudmFy
YTENMAsGA1UEAxMERXlhbDElMCMGCSqGSIb3DQEJARYWZXlhbC56b2xvdG92QGlu
dGVsLmNvbYIBADANBgkqhkiG9w0BAQQFAAOBgQClfYbybK7BTmRvgPtt9KmezFWL
vv2is8mA3h8FT+HFTPjLQb1cRtczqsvv6DumwMOartwkg9kS85drn8PGYO9ZkdXu
rQ5qtZ62ZIvHhY5zcOr8dMn9+rnF5Dljg1vfJEZiN+cax0n2SeL6EWuAzOiuZyrk
2aK05CZt3bXR9HE3uA==
-----END CERTIFICATE-----
